target datalayout = "e-m:e-p270:32:32-p271:32:32-p272:64:64-i64:64-i128:128-f80:128-n8:16:32:64-S128"
target triple = "x86_64-pc-linux-gnu"

; Function Attrs: nounwind sspstrong uwtable
define i64 @ossl_pkey_new(ptr noundef %0) #0 {
  %2 = alloca ptr, align 8
  %3 = alloca i64, align 8
  %4 = alloca i32, align 4
  store ptr %0, ptr %2, align 8, !tbaa !10
  call void @llvm.lifetime.start.p0(i64 8, ptr %3) #19
  call void @llvm.lifetime.start.p0(i64 4, ptr %4) #19
  %5 = load ptr, ptr %2, align 8, !tbaa !10
  %6 = ptrtoint ptr %5 to i64
  %7 = call i64 @rb_protect(ptr noundef @pkey_new0, i64 noundef %6, ptr noundef %4)
  store i64 %7, ptr %3, align 8, !tbaa !12
  %8 = load i32, ptr %4, align 4, !tbaa !14
  %9 = icmp ne i32 %8, 0
  br i1 %9, label %10, label %13

10:                                               ; preds = %1
  %11 = load ptr, ptr %2, align 8, !tbaa !10
  call void @EVP_PKEY_free(ptr noundef %11)
  %12 = load i32, ptr %4, align 4, !tbaa !14
  call void @rb_jump_tag(i32 noundef %12) #20
  unreachable

13:                                               ; preds = %1
  %14 = load i64, ptr %3, align 8, !tbaa !12
  call void @llvm.lifetime.end.p0(i64 4, ptr %4) #19
  call void @llvm.lifetime.end.p0(i64 8, ptr %3) #19
  ret i64 %14
}