; Function Attrs: nounwind sspstrong uwtable
define i64 @ossl_pkey_new(ptr noundef %0) local_unnamed_addr #0 {
  %2 = alloca i32, align 4
  call void @llvm.lifetime.start.p0(i64 4, ptr nonnull %2) #8
  %3 = ptrtoint ptr %0 to i64
  %4 = call i64 @rb_protect(ptr noundef nonnull @pkey_new0, i64 noundef %3, ptr noundef nonnull %2) #8
  %5 = load i32, ptr %2, align 4, !tbaa !6
  %.not = icmp eq i32 %5, 0
  br i1 %.not, label %8, label %6

6:                                                ; preds = %1
  call void @EVP_PKEY_free(ptr noundef %0) #8
  %7 = load i32, ptr %2, align 4, !tbaa !6
  call void @rb_jump_tag(i32 noundef %7) #9
  unreachable

8:                                                ; preds = %1
  call void @llvm.lifetime.end.p0(i64 4, ptr nonnull %2) #8
  ret i64 %4
}